target datalayout = "e-m:e-p270:32:32-p271:32:32-p272:64:64-i64:64-i128:128-f80:128-n8:16:32:64-S128"
target triple = "x86_64-pc-linux-gnu"

@.str.3 = private unnamed_addr constant [14 x i8] c"signalfuncs.c\00", align 1
@Logging_collector = external global i8, align 1
@.str.14 = private unnamed_addr constant [56 x i8] c"rotation not possible because log collection not active\00", align 1
@__func__.pg_rotate_logfile = private unnamed_addr constant [18 x i8] c"pg_rotate_logfile\00", align 1

; Function Attrs: inlinehint nounwind uwtable
define internal i64 @BoolGetDatum(i1 noundef zeroext %0) #2 {
  %2 = alloca i8, align 1
  %3 = zext i1 %0 to i8
  store i8 %3, ptr %2, align 1
  %4 = load i8, ptr %2, align 1, !range !4, !noundef !5
  %5 = trunc i8 %4 to i1
  %6 = select i1 %5, i32 1, i32 0
  %7 = sext i32 %6 to i64
  ret i64 %7
}

; Function Attrs: nounwind uwtable
define dso_local i64 @pg_rotate_logfile(ptr noundef %0) #0 {
  %2 = alloca i64, align 8
  %3 = alloca ptr, align 8
  store ptr %0, ptr %3, align 8
  %4 = load i8, ptr @Logging_collector, align 1, !range !4, !noundef !5
  %5 = trunc i8 %4 to i1
  br i1 %5, label %17, label %6

6:                                                ; preds = %1
  br label %7

7:                                                ; preds = %6
  br i1 false, label %8, label %10

8:                                                ; preds = %7
  %9 = call zeroext i1 @errstart_cold(i32 noundef 19, ptr noundef null) #9
  br i1 %9, label %12, label %14

10:                                               ; preds = %7
  %11 = call zeroext i1 @errstart(i32 noundef 19, ptr noundef null)
  br i1 %11, label %12, label %14

12:                                               ; preds = %10, %8
  %13 = call i32 (ptr, ...) @errmsg(ptr noundef @.str.14)
  call void @errfinish(ptr noundef @.str.3, i32 noundef 313, ptr noundef @__func__.pg_rotate_logfile)
  br label %14

14:                                               ; preds = %12, %10, %8
  br label %15

15:                                               ; preds = %14
  %16 = call i64 @BoolGetDatum(i1 noundef zeroext false)
  store i64 %16, ptr %2, align 8
  br label %19

17:                                               ; preds = %1
  call void @SendPostmasterSignal(i32 noundef 2)
  %18 = call i64 @BoolGetDatum(i1 noundef zeroext true)
  store i64 %18, ptr %2, align 8
  br label %19

19:                                               ; preds = %17, %15
  %20 = load i64, ptr %2, align 8
  ret i64 %20
}