; Function Attrs: nounwind uwtable
define dso_local range(i64 0, 2) i64 @pg_rotate_logfile(ptr noundef readnone captures(none) %0) local_unnamed_addr #0 {
  %2 = load i8, ptr @Logging_collector, align 1, !range !7, !noundef !8
  %3 = trunc nuw i8 %2 to i1
  br i1 %3, label %8, label %4

4:                                                ; preds = %1
  %5 = tail call zeroext i1 @errstart(i32 noundef 19, ptr noundef null) #8
  br i1 %5, label %6, label %9

6:                                                ; preds = %4
  %7 = tail call i32 (ptr, ...) @errmsg(ptr noundef nonnull @.str.14) #8
  tail call void @errfinish(ptr noundef nonnull @.str.3, i32 noundef 313, ptr noundef nonnull @__func__.pg_rotate_logfile) #8
  br label %9

8:                                                ; preds = %1
  tail call void @SendPostmasterSignal(i32 noundef 2) #8
  br label %9

9:                                                ; preds = %6, %4, %8
  %.0 = phi i64 [ 1, %8 ], [ 0, %4 ], [ 0, %6 ]
  ret i64 %.0
}